; Function Attrs: null_pointer_is_valid sspstrong uwtable
define internal i32 @dissect_h245_TsapIdentifier(ptr noundef %0, i32 noundef %1, ptr noundef %2, ptr noundef %3, i32 noundef %4) #1 {
  %6 = alloca i32, align 4
  call void @llvm.lifetime.start.p0(i64 4, ptr nonnull %6) #13
  %7 = call i32 @dissect_per_constrained_integer(ptr noundef %0, i32 noundef %1, ptr noundef %2, ptr noundef %3, i32 noundef %4, i32 noundef 0, i32 noundef 65535, ptr noundef nonnull %6, i1 noundef zeroext false)
  %8 = load ptr, ptr @upcoming_channel, align 8
  %.not = icmp eq ptr %8, null
  br i1 %.not, label %15, label %9

9:                                                ; preds = %5
  %10 = getelementptr inbounds nuw i8, ptr %8, i64 32
  %11 = load ptr, ptr %10, align 8
  %.not6 = icmp eq ptr %11, null
  br i1 %.not6, label %15, label %12

12:                                               ; preds = %9
  %13 = load i32, ptr %6, align 4
  %14 = getelementptr inbounds nuw i8, ptr %11, i64 40
  store i32 %13, ptr %14, align 8
  br label %15

15:                                               ; preds = %12, %9, %5
  call void @llvm.lifetime.end.p0(i64 4, ptr nonnull %6) #13
  ret i32 %7
}